target datalayout = "e-m:e-p270:32:32-p271:32:32-p272:64:64-i64:64-i128:128-f80:128-n8:16:32:64-S128"
target triple = "x86_64-pc-linux-gnu"

%struct.Vec_Int_t_ = type { i32, i32, ptr }
%struct.Prs_Man_t_ = type { ptr, ptr, ptr, ptr, ptr, ptr, ptr, ptr, ptr, %struct.Vec_Str_t_, %struct.Vec_Int_t_, %struct.Vec_Int_t_, %struct.Vec_Int_t_, %struct.Vec_Int_t_, %struct.Vec_Int_t_, %struct.Vec_Int_t_, %struct.Vec_Int_t_, i32, i32, i32, i32, [1000 x i8] }
%struct.Vec_Str_t_ = type { i32, i32, ptr }

; Function Attrs: nounwind uwtable
define internal i32 @Prs_ManIsChar1(ptr noundef %0, i8 noundef signext %1) #0 {
  %3 = alloca ptr, align 8
  %4 = alloca i8, align 1
  store ptr %0, ptr %3, align 8
  store i8 %1, ptr %4, align 1
  %5 = load ptr, ptr %3, align 8
  %6 = getelementptr inbounds %struct.Prs_Man_t_, ptr %5, i32 0, i32 3
  %7 = load ptr, ptr %6, align 8
  %8 = getelementptr inbounds i8, ptr %7, i64 1
  %9 = load i8, ptr %8, align 1
  %10 = sext i8 %9 to i32
  %11 = load i8, ptr %4, align 1
  %12 = sext i8 %11 to i32
  %13 = icmp eq i32 %10, %12
  %14 = zext i1 %13 to i32
  ret i32 %14
}

; Function Attrs: nounwind uwtable
define internal i32 @Prs_ManUtilSkipName(ptr noundef %0) #0 {
  %2 = alloca i32, align 4
  %3 = alloca ptr, align 8
  store ptr %0, ptr %3, align 8
  %4 = load ptr, ptr %3, align 8
  %5 = call i32 @Prs_ManIsChar(ptr noundef %4, i8 noundef signext 92)
  %6 = icmp ne i32 %5, 0
  br i1 %6, label %8, label %7

7:                                                ; preds = %1
  store i32 0, ptr %2, align 4
  br label %37

8:                                                ; preds = %1
  %9 = load ptr, ptr %3, align 8
  %10 = getelementptr inbounds %struct.Prs_Man_t_, ptr %9, i32 0, i32 3
  %11 = load ptr, ptr %10, align 8
  %12 = getelementptr inbounds i8, ptr %11, i32 1
  store ptr %12, ptr %10, align 8
  br label %13

13:                                               ; preds = %31, %8
  %14 = load ptr, ptr %3, align 8
  %15 = getelementptr inbounds %struct.Prs_Man_t_, ptr %14, i32 0, i32 3
  %16 = load ptr, ptr %15, align 8
  %17 = load ptr, ptr %3, align 8
  %18 = getelementptr inbounds %struct.Prs_Man_t_, ptr %17, i32 0, i32 2
  %19 = load ptr, ptr %18, align 8
  %20 = icmp ult ptr %16, %19
  br i1 %20, label %21, label %36

21:                                               ; preds = %13
  %22 = load ptr, ptr %3, align 8
  %23 = call i32 @Prs_ManIsChar(ptr noundef %22, i8 noundef signext 32)
  %24 = icmp ne i32 %23, 0
  br i1 %24, label %25, label %30

25:                                               ; preds = %21
  %26 = load ptr, ptr %3, align 8
  %27 = getelementptr inbounds %struct.Prs_Man_t_, ptr %26, i32 0, i32 3
  %28 = load ptr, ptr %27, align 8
  %29 = getelementptr inbounds i8, ptr %28, i32 1
  store ptr %29, ptr %27, align 8
  store i32 1, ptr %2, align 4
  br label %37

30:                                               ; preds = %21
  br label %31

31:                                               ; preds = %30
  %32 = load ptr, ptr %3, align 8
  %33 = getelementptr inbounds %struct.Prs_Man_t_, ptr %32, i32 0, i32 3
  %34 = load ptr, ptr %33, align 8
  %35 = getelementptr inbounds i8, ptr %34, i32 1
  store ptr %35, ptr %33, align 8
  br label %13, !llvm.loop !82

36:                                               ; preds = %13
  store i32 0, ptr %2, align 4
  br label %37

37:                                               ; preds = %36, %25, %7
  %38 = load i32, ptr %2, align 4
  ret i32 %38
}

; Function Attrs: nounwind uwtable
define internal i32 @Prs_ManUtilSkipComments(ptr noundef %0) #0 {
  %2 = alloca i32, align 4
  %3 = alloca ptr, align 8
  store ptr %0, ptr %3, align 8
  %4 = load ptr, ptr %3, align 8
  %5 = call i32 @Prs_ManIsChar(ptr noundef %4, i8 noundef signext 47)
  %6 = icmp ne i32 %5, 0
  br i1 %6, label %8, label %7

7:                                                ; preds = %1
  store i32 0, ptr %2, align 4
  br label %84

8:                                                ; preds = %1
  %9 = load ptr, ptr %3, align 8
  %10 = call i32 @Prs_ManIsChar1(ptr noundef %9, i8 noundef signext 47)
  %11 = icmp ne i32 %10, 0
  br i1 %11, label %12, label %41

12:                                               ; preds = %8
  %13 = load ptr, ptr %3, align 8
  %14 = getelementptr inbounds %struct.Prs_Man_t_, ptr %13, i32 0, i32 3
  %15 = load ptr, ptr %14, align 8
  %16 = getelementptr inbounds i8, ptr %15, i64 2
  store ptr %16, ptr %14, align 8
  br label %17

17:                                               ; preds = %35, %12
  %18 = load ptr, ptr %3, align 8
  %19 = getelementptr inbounds %struct.Prs_Man_t_, ptr %18, i32 0, i32 3
  %20 = load ptr, ptr %19, align 8
  %21 = load ptr, ptr %3, align 8
  %22 = getelementptr inbounds %struct.Prs_Man_t_, ptr %21, i32 0, i32 2
  %23 = load ptr, ptr %22, align 8
  %24 = icmp ult ptr %20, %23
  br i1 %24, label %25, label %40

25:                                               ; preds = %17
  %26 = load ptr, ptr %3, align 8
  %27 = call i32 @Prs_ManIsChar(ptr noundef %26, i8 noundef signext 10)
  %28 = icmp ne i32 %27, 0
  br i1 %28, label %29, label %34

29:                                               ; preds = %25
  %30 = load ptr, ptr %3, align 8
  %31 = getelementptr inbounds %struct.Prs_Man_t_, ptr %30, i32 0, i32 3
  %32 = load ptr, ptr %31, align 8
  %33 = getelementptr inbounds i8, ptr %32, i32 1
  store ptr %33, ptr %31, align 8
  store i32 1, ptr %2, align 4
  br label %84

34:                                               ; preds = %25
  br label %35

35:                                               ; preds = %34
  %36 = load ptr, ptr %3, align 8
  %37 = getelementptr inbounds %struct.Prs_Man_t_, ptr %36, i32 0, i32 3
  %38 = load ptr, ptr %37, align 8
  %39 = getelementptr inbounds i8, ptr %38, i32 1
  store ptr %39, ptr %37, align 8
  br label %17, !llvm.loop !67

40:                                               ; preds = %17
  br label %83

41:                                               ; preds = %8
  %42 = load ptr, ptr %3, align 8
  %43 = call i32 @Prs_ManIsChar1(ptr noundef %42, i8 noundef signext 42)
  %44 = icmp ne i32 %43, 0
  br i1 %44, label %45, label %82

45:                                               ; preds = %41
  %46 = load ptr, ptr %3, align 8
  %47 = getelementptr inbounds %struct.Prs_Man_t_, ptr %46, i32 0, i32 3
  %48 = load ptr, ptr %47, align 8
  %49 = getelementptr inbounds i8, ptr %48, i64 2
  store ptr %49, ptr %47, align 8
  br label %50

50:                                               ; preds = %76, %45
  %51 = load ptr, ptr %3, align 8
  %52 = getelementptr inbounds %struct.Prs_Man_t_, ptr %51, i32 0, i32 3
  %53 = load ptr, ptr %52, align 8
  %54 = load ptr, ptr %3, align 8
  %55 = getelementptr inbounds %struct.Prs_Man_t_, ptr %54, i32 0, i32 2
  %56 = load ptr, ptr %55, align 8
  %57 = icmp ult ptr %53, %56
  br i1 %57, label %58, label %81

58:                                               ; preds = %50
  %59 = load ptr, ptr %3, align 8
  %60 = call i32 @Prs_ManIsChar(ptr noundef %59, i8 noundef signext 42)
  %61 = icmp ne i32 %60, 0
  br i1 %61, label %62, label %75

62:                                               ; preds = %58
  %63 = load ptr, ptr %3, align 8
  %64 = call i32 @Prs_ManIsChar1(ptr noundef %63, i8 noundef signext 47)
  %65 = icmp ne i32 %64, 0
  br i1 %65, label %66, label %75

66:                                               ; preds = %62
  %67 = load ptr, ptr %3, align 8
  %68 = getelementptr inbounds %struct.Prs_Man_t_, ptr %67, i32 0, i32 3
  %69 = load ptr, ptr %68, align 8
  %70 = getelementptr inbounds i8, ptr %69, i32 1
  store ptr %70, ptr %68, align 8
  %71 = load ptr, ptr %3, align 8
  %72 = getelementptr inbounds %struct.Prs_Man_t_, ptr %71, i32 0, i32 3
  %73 = load ptr, ptr %72, align 8
  %74 = getelementptr inbounds i8, ptr %73, i32 1
  store ptr %74, ptr %72, align 8
  store i32 1, ptr %2, align 4
  br label %84

75:                                               ; preds = %62, %58
  br label %76

76:                                               ; preds = %75
  %77 = load ptr, ptr %3, align 8
  %78 = getelementptr inbounds %struct.Prs_Man_t_, ptr %77, i32 0, i32 3
  %79 = load ptr, ptr %78, align 8
  %80 = getelementptr inbounds i8, ptr %79, i32 1
  store ptr %80, ptr %78, align 8
  br label %50, !llvm.loop !68

81:                                               ; preds = %50
  br label %82

82:                                               ; preds = %81, %41
  br label %83

83:                                               ; preds = %82, %40
  store i32 0, ptr %2, align 4
  br label %84

84:                                               ; preds = %83, %66, %29, %7
  %85 = load i32, ptr %2, align 4
  ret i32 %85
}

; Function Attrs: nounwind uwtable
define internal i32 @Prs_ManIsChar(ptr noundef %0, i8 noundef signext %1) #0 {
  %3 = alloca ptr, align 8
  %4 = alloca i8, align 1
  store ptr %0, ptr %3, align 8
  store i8 %1, ptr %4, align 1
  %5 = load ptr, ptr %3, align 8
  %6 = getelementptr inbounds %struct.Prs_Man_t_, ptr %5, i32 0, i32 3
  %7 = load ptr, ptr %6, align 8
  %8 = getelementptr inbounds i8, ptr %7, i64 0
  %9 = load i8, ptr %8, align 1
  %10 = sext i8 %9 to i32
  %11 = load i8, ptr %4, align 1
  %12 = sext i8 %11 to i32
  %13 = icmp eq i32 %10, %12
  %14 = zext i1 %13 to i32
  ret i32 %14
}

; Function Attrs: nounwind uwtable
define internal i32 @Prs_ManUtilSkipUntil(ptr noundef %0, i8 noundef signext %1) #0 {
  %3 = alloca i32, align 4
  %4 = alloca ptr, align 8
  %5 = alloca i8, align 1
  store ptr %0, ptr %4, align 8
  store i8 %1, ptr %5, align 1
  br label %6

6:                                                ; preds = %30, %29, %24, %2
  %7 = load ptr, ptr %4, align 8
  %8 = getelementptr inbounds %struct.Prs_Man_t_, ptr %7, i32 0, i32 3
  %9 = load ptr, ptr %8, align 8
  %10 = load ptr, ptr %4, align 8
  %11 = getelementptr inbounds %struct.Prs_Man_t_, ptr %10, i32 0, i32 2
  %12 = load ptr, ptr %11, align 8
  %13 = icmp ult ptr %9, %12
  br i1 %13, label %14, label %35

14:                                               ; preds = %6
  %15 = load ptr, ptr %4, align 8
  %16 = load i8, ptr %5, align 1
  %17 = call i32 @Prs_ManIsChar(ptr noundef %15, i8 noundef signext %16)
  %18 = icmp ne i32 %17, 0
  br i1 %18, label %19, label %20

19:                                               ; preds = %14
  store i32 1, ptr %3, align 4
  br label %36

20:                                               ; preds = %14
  %21 = load ptr, ptr %4, align 8
  %22 = call i32 @Prs_ManUtilSkipComments(ptr noundef %21)
  %23 = icmp ne i32 %22, 0
  br i1 %23, label %24, label %25

24:                                               ; preds = %20
  br label %6, !llvm.loop !78

25:                                               ; preds = %20
  %26 = load ptr, ptr %4, align 8
  %27 = call i32 @Prs_ManUtilSkipName(ptr noundef %26)
  %28 = icmp ne i32 %27, 0
  br i1 %28, label %29, label %30

29:                                               ; preds = %25
  br label %6, !llvm.loop !78

30:                                               ; preds = %25
  %31 = load ptr, ptr %4, align 8
  %32 = getelementptr inbounds %struct.Prs_Man_t_, ptr %31, i32 0, i32 3
  %33 = load ptr, ptr %32, align 8
  %34 = getelementptr inbounds i8, ptr %33, i32 1
  store ptr %34, ptr %32, align 8
  br label %6, !llvm.loop !78

35:                                               ; preds = %6
  store i32 0, ptr %3, align 4
  br label %36

36:                                               ; preds = %35, %19
  %37 = load i32, ptr %3, align 4
  ret i32 %37
}